target datalayout = "e-m:e-p270:32:32-p271:32:32-p272:64:64-i64:64-i128:128-f80:128-n8:16:32:64-S128"
target triple = "x86_64-unknown-linux-gnu"

%struct.ctl_named_node_s = type { %struct.ctl_node_s, ptr, i64, ptr, ptr }
%struct.ctl_node_s = type { i8 }
%struct.ctl_indexed_node_s = type { %struct.ctl_node_s, ptr }

@ctl_initialized = internal global i8 0, align 1
@super_root_node = internal constant [1 x %struct.ctl_named_node_s] [%struct.ctl_named_node_s { %struct.ctl_node_s { i8 1 }, ptr @.str.1, i64 13, ptr @root_node, ptr null }], align 16

; Function Attrs: nounwind uwtable
define internal ptr @ctl_indexed_node(ptr noundef %node) #0 {
entry:
  %node.addr = alloca ptr, align 8
  store ptr %node, ptr %node.addr, align 8
  %0 = load ptr, ptr %node.addr, align 8
  %named = getelementptr inbounds %struct.ctl_node_s, ptr %0, i32 0, i32 0
  %1 = load i8, ptr %named, align 1
  %tobool = trunc i8 %1 to i1
  br i1 %tobool, label %cond.false, label %cond.true

cond.true:                                        ; preds = %entry
  %2 = load ptr, ptr %node.addr, align 8
  br label %cond.end

cond.false:                                       ; preds = %entry
  br label %cond.end

cond.end:                                         ; preds = %cond.false, %cond.true
  %cond = phi ptr [ %2, %cond.true ], [ null, %cond.false ]
  ret ptr %cond
}

; Function Attrs: nounwind uwtable
define internal ptr @ctl_named_children(ptr noundef %node, i64 noundef %index) #0 {
entry:
  %node.addr = alloca ptr, align 8
  %index.addr = alloca i64, align 8
  %children = alloca ptr, align 8
  store ptr %node, ptr %node.addr, align 8
  store i64 %index, ptr %index.addr, align 8
  %0 = load ptr, ptr %node.addr, align 8
  %children1 = getelementptr inbounds %struct.ctl_named_node_s, ptr %0, i32 0, i32 3
  %1 = load ptr, ptr %children1, align 8
  %call = call ptr @ctl_named_node(ptr noundef %1)
  store ptr %call, ptr %children, align 8
  %2 = load ptr, ptr %children, align 8
  %tobool = icmp ne ptr %2, null
  br i1 %tobool, label %cond.true, label %cond.false

cond.true:                                        ; preds = %entry
  %3 = load ptr, ptr %children, align 8
  %4 = load i64, ptr %index.addr, align 8
  %arrayidx = getelementptr inbounds %struct.ctl_named_node_s, ptr %3, i64 %4
  br label %cond.end

cond.false:                                       ; preds = %entry
  br label %cond.end

cond.end:                                         ; preds = %cond.false, %cond.true
  %cond = phi ptr [ %arrayidx, %cond.true ], [ null, %cond.false ]
  ret ptr %cond
}

; Function Attrs: nounwind uwtable
define internal ptr @ctl_named_node(ptr noundef %node) #0 {
entry:
  %node.addr = alloca ptr, align 8
  store ptr %node, ptr %node.addr, align 8
  %0 = load ptr, ptr %node.addr, align 8
  %named = getelementptr inbounds %struct.ctl_node_s, ptr %0, i32 0, i32 0
  %1 = load i8, ptr %named, align 1
  %tobool = trunc i8 %1 to i1
  br i1 %tobool, label %cond.true, label %cond.false

cond.true:                                        ; preds = %entry
  %2 = load ptr, ptr %node.addr, align 8
  br label %cond.end

cond.false:                                       ; preds = %entry
  br label %cond.end

cond.end:                                         ; preds = %cond.false, %cond.true
  %cond = phi ptr [ %2, %cond.true ], [ null, %cond.false ]
  ret ptr %cond
}

; Function Attrs: nounwind uwtable
define internal i32 @ctl_lookupbymib(ptr noundef %tsdn, ptr noundef %ending_nodep, ptr noundef %mib, i64 noundef %miblen) #0 {
entry:
  %tsdn.addr = alloca ptr, align 8
  %ending_nodep.addr = alloca ptr, align 8
  %mib.addr = alloca ptr, align 8
  %miblen.addr = alloca i64, align 8
  %ret = alloca i32, align 4
  %node = alloca ptr, align 8
  %i = alloca i64, align 8
  %inode = alloca ptr, align 8
  store ptr %tsdn, ptr %tsdn.addr, align 8
  store ptr %ending_nodep, ptr %ending_nodep.addr, align 8
  store ptr %mib, ptr %mib.addr, align 8
  store i64 %miblen, ptr %miblen.addr, align 8
  store ptr @super_root_node, ptr %node, align 8
  store i64 0, ptr %i, align 8
  br label %for.cond

for.cond:                                         ; preds = %for.inc, %entry
  %0 = load i64, ptr %i, align 8
  %1 = load i64, ptr %miblen.addr, align 8
  %cmp = icmp ult i64 %0, %1
  br i1 %cmp, label %for.body, label %for.end

for.body:                                         ; preds = %for.cond
  br label %do.body

do.body:                                          ; preds = %for.body
  br label %do.end

do.end:                                           ; preds = %do.body
  br label %do.body1

do.body1:                                         ; preds = %do.end
  br label %do.end2

do.end2:                                          ; preds = %do.body1
  %2 = load ptr, ptr %node, align 8
  %children = getelementptr inbounds %struct.ctl_named_node_s, ptr %2, i32 0, i32 3
  %3 = load ptr, ptr %children, align 8
  %call = call ptr @ctl_named_node(ptr noundef %3)
  %cmp3 = icmp ne ptr %call, null
  br i1 %cmp3, label %if.then, label %if.else

if.then:                                          ; preds = %do.end2
  %4 = load ptr, ptr %node, align 8
  %nchildren = getelementptr inbounds %struct.ctl_named_node_s, ptr %4, i32 0, i32 2
  %5 = load i64, ptr %nchildren, align 8
  %6 = load ptr, ptr %mib.addr, align 8
  %7 = load i64, ptr %i, align 8
  %arrayidx = getelementptr inbounds i64, ptr %6, i64 %7
  %8 = load i64, ptr %arrayidx, align 8
  %cmp4 = icmp ule i64 %5, %8
  br i1 %cmp4, label %if.then5, label %if.end

if.then5:                                         ; preds = %if.then
  store i32 2, ptr %ret, align 4
  br label %label_return

if.end:                                           ; preds = %if.then
  %9 = load ptr, ptr %node, align 8
  %10 = load ptr, ptr %mib.addr, align 8
  %11 = load i64, ptr %i, align 8
  %arrayidx6 = getelementptr inbounds i64, ptr %10, i64 %11
  %12 = load i64, ptr %arrayidx6, align 8
  %call7 = call ptr @ctl_named_children(ptr noundef %9, i64 noundef %12)
  store ptr %call7, ptr %node, align 8
  br label %if.end15

if.else:                                          ; preds = %do.end2
  %13 = load ptr, ptr %node, align 8
  %children8 = getelementptr inbounds %struct.ctl_named_node_s, ptr %13, i32 0, i32 3
  %14 = load ptr, ptr %children8, align 8
  %call9 = call ptr @ctl_indexed_node(ptr noundef %14)
  store ptr %call9, ptr %inode, align 8
  %15 = load ptr, ptr %inode, align 8
  %index = getelementptr inbounds %struct.ctl_indexed_node_s, ptr %15, i32 0, i32 1
  %16 = load ptr, ptr %index, align 8
  %17 = load ptr, ptr %tsdn.addr, align 8
  %18 = load ptr, ptr %mib.addr, align 8
  %19 = load i64, ptr %miblen.addr, align 8
  %20 = load ptr, ptr %mib.addr, align 8
  %21 = load i64, ptr %i, align 8
  %arrayidx10 = getelementptr inbounds i64, ptr %20, i64 %21
  %22 = load i64, ptr %arrayidx10, align 8
  %call11 = call ptr %16(ptr noundef %17, ptr noundef %18, i64 noundef %19, i64 noundef %22)
  store ptr %call11, ptr %node, align 8
  %23 = load ptr, ptr %node, align 8
  %cmp12 = icmp eq ptr %23, null
  br i1 %cmp12, label %if.then13, label %if.end14

if.then13:                                        ; preds = %if.else
  store i32 2, ptr %ret, align 4
  br label %label_return

if.end14:                                         ; preds = %if.else
  br label %if.end15

if.end15:                                         ; preds = %if.end14, %if.end
  br label %for.inc

for.inc:                                          ; preds = %if.end15
  %24 = load i64, ptr %i, align 8
  %inc = add i64 %24, 1
  store i64 %inc, ptr %i, align 8
  br label %for.cond, !llvm.loop !9

for.end:                                          ; preds = %for.cond
  br label %do.body16

do.body16:                                        ; preds = %for.end
  br label %do.end17

do.end17:                                         ; preds = %do.body16
  %25 = load ptr, ptr %node, align 8
  %26 = load ptr, ptr %ending_nodep.addr, align 8
  store ptr %25, ptr %26, align 8
  store i32 0, ptr %ret, align 4
  br label %label_return

label_return:                                     ; preds = %do.end17, %if.then13, %if.then5
  %27 = load i32, ptr %ret, align 4
  ret i32 %27
}

; Function Attrs: nounwind uwtable
define hidden i32 @ctl_bymib(ptr noundef %tsd, ptr noundef %mib, i64 noundef %miblen, ptr noundef %oldp, ptr noundef %oldlenp, ptr noundef %newp, i64 noundef %newlen) #0 {
entry:
  %tsd.addr.i = alloca ptr, align 8
  %tsd.addr = alloca ptr, align 8
  %mib.addr = alloca ptr, align 8
  %miblen.addr = alloca i64, align 8
  %oldp.addr = alloca ptr, align 8
  %oldlenp.addr = alloca ptr, align 8
  %newp.addr = alloca ptr, align 8
  %newlen.addr = alloca i64, align 8
  %ret = alloca i32, align 4
  %node = alloca ptr, align 8
  store ptr %tsd, ptr %tsd.addr, align 8
  store ptr %mib, ptr %mib.addr, align 8
  store i64 %miblen, ptr %miblen.addr, align 8
  store ptr %oldp, ptr %oldp.addr, align 8
  store ptr %oldlenp, ptr %oldlenp.addr, align 8
  store ptr %newp, ptr %newp.addr, align 8
  store i64 %newlen, ptr %newlen.addr, align 8
  %0 = load i8, ptr @ctl_initialized, align 1
  %tobool = trunc i8 %0 to i1
  br i1 %tobool, label %if.end, label %land.lhs.true

land.lhs.true:                                    ; preds = %entry
  %1 = load ptr, ptr %tsd.addr, align 8
  %call = call zeroext i1 @ctl_init(ptr noundef %1)
  br i1 %call, label %if.then, label %if.end

if.then:                                          ; preds = %land.lhs.true
  store i32 11, ptr %ret, align 4
  br label %label_return

if.end:                                           ; preds = %land.lhs.true, %entry
  %2 = load ptr, ptr %tsd.addr, align 8
  store ptr %2, ptr %tsd.addr.i, align 8
  %3 = load ptr, ptr %tsd.addr.i, align 8
  %4 = load ptr, ptr %mib.addr, align 8
  %5 = load i64, ptr %miblen.addr, align 8
  %call2 = call i32 @ctl_lookupbymib(ptr noundef %3, ptr noundef %node, ptr noundef %4, i64 noundef %5)
  store i32 %call2, ptr %ret, align 4
  %6 = load i32, ptr %ret, align 4
  %cmp = icmp ne i32 %6, 0
  br i1 %cmp, label %if.then3, label %if.end4

if.then3:                                         ; preds = %if.end
  br label %label_return

if.end4:                                          ; preds = %if.end
  %7 = load ptr, ptr %node, align 8
  %tobool5 = icmp ne ptr %7, null
  br i1 %tobool5, label %land.lhs.true6, label %if.else

land.lhs.true6:                                   ; preds = %if.end4
  %8 = load ptr, ptr %node, align 8
  %ctl = getelementptr inbounds %struct.ctl_named_node_s, ptr %8, i32 0, i32 4
  %9 = load ptr, ptr %ctl, align 8
  %tobool7 = icmp ne ptr %9, null
  br i1 %tobool7, label %if.then8, label %if.else

if.then8:                                         ; preds = %land.lhs.true6
  %10 = load ptr, ptr %node, align 8
  %ctl9 = getelementptr inbounds %struct.ctl_named_node_s, ptr %10, i32 0, i32 4
  %11 = load ptr, ptr %ctl9, align 8
  %12 = load ptr, ptr %tsd.addr, align 8
  %13 = load ptr, ptr %mib.addr, align 8
  %14 = load i64, ptr %miblen.addr, align 8
  %15 = load ptr, ptr %oldp.addr, align 8
  %16 = load ptr, ptr %oldlenp.addr, align 8
  %17 = load ptr, ptr %newp.addr, align 8
  %18 = load i64, ptr %newlen.addr, align 8
  %call10 = call i32 %11(ptr noundef %12, ptr noundef %13, i64 noundef %14, ptr noundef %15, ptr noundef %16, ptr noundef %17, i64 noundef %18)
  store i32 %call10, ptr %ret, align 4
  br label %if.end11

if.else:                                          ; preds = %land.lhs.true6, %if.end4
  store i32 2, ptr %ret, align 4
  br label %if.end11

if.end11:                                         ; preds = %if.else, %if.then8
  br label %label_return

label_return:                                     ; preds = %if.end11, %if.then3, %if.then
  %19 = load i32, ptr %ret, align 4
  ret i32 %19
}